target datalayout = "e-m:e-p270:32:32-p271:32:32-p272:64:64-i64:64-i128:128-f80:128-n8:16:32:64-S128"
target triple = "x86_64-unknown-linux-gnu"

%"class.openvdb::v11_0::points::GroupHandle" = type <{ ptr, i8, [7 x i8] }>
%"class.openvdb::v11_0::points::AttributeArray" = type { ptr, i8, %"class.tbb::detail::d1::spin_mutex", i8, i8, %"struct.std::atomic.0", %union.anon }
%"class.tbb::detail::d1::spin_mutex" = type { %"struct.std::atomic" }
%"struct.std::atomic" = type { %"struct.std::__atomic_base" }
%"struct.std::__atomic_base" = type { i8 }
%"struct.std::atomic.0" = type { %"struct.std::__atomic_base.1" }
%"struct.std::__atomic_base.1" = type { i32 }
%union.anon = type { %"class.std::unique_ptr" }
%"class.std::unique_ptr" = type { %"struct.std::__uniq_ptr_data" }
%"struct.std::__uniq_ptr_data" = type { %"class.std::__uniq_ptr_impl" }
%"class.std::__uniq_ptr_impl" = type { %"class.std::tuple" }
%"class.std::tuple" = type { %"struct.std::_Tuple_impl" }
%"struct.std::_Tuple_impl" = type { %"struct.std::_Head_base.3" }
%"struct.std::_Head_base.3" = type { ptr }
%"class.openvdb::v11_0::points::TypedAttributeArray" = type { %"class.openvdb::v11_0::points::AttributeArray", %"class.std::unique_ptr.4", i32, i32 }
%"class.std::unique_ptr.4" = type { %"struct.std::__uniq_ptr_data.5" }
%"struct.std::__uniq_ptr_data.5" = type { %"class.std::__uniq_ptr_impl.6" }
%"class.std::__uniq_ptr_impl.6" = type { %"class.std::tuple.7" }
%"class.std::tuple.7" = type { %"struct.std::_Tuple_impl.8" }
%"struct.std::_Tuple_impl.8" = type { %"struct.std::_Head_base.11" }
%"struct.std::_Head_base.11" = type { ptr }

; Function Attrs: mustprogress nounwind uwtable
define linkonce_odr noundef zeroext i1 @_ZNK7openvdb5v11_06points19TypedAttributeArrayIhNS1_10GroupCodecEE9isUniformEv(ptr noundef nonnull align 8 dereferenceable(40) %this) unnamed_addr #5 comdat align 2 {
entry:
  %this.addr = alloca ptr, align 8
  store ptr %this, ptr %this.addr, align 8
  %this1 = load ptr, ptr %this.addr, align 8
  %mIsUniform = getelementptr inbounds %"class.openvdb::v11_0::points::AttributeArray", ptr %this1, i32 0, i32 1
  %0 = load i8, ptr %mIsUniform, align 8
  %tobool = trunc i8 %0 to i1
  ret i1 %tobool
}

; Function Attrs: mustprogress nounwind uwtable
define linkonce_odr noundef i32 @_ZNK7openvdb5v11_06points19TypedAttributeArrayIhNS1_10GroupCodecEE4sizeEv(ptr noundef nonnull align 8 dereferenceable(40) %this) unnamed_addr #5 comdat align 2 {
entry:
  %this.addr = alloca ptr, align 8
  store ptr %this, ptr %this.addr, align 8
  %this1 = load ptr, ptr %this.addr, align 8
  %mSize = getelementptr inbounds %"class.openvdb::v11_0::points::TypedAttributeArray", ptr %this1, i32 0, i32 2
  %0 = load i32, ptr %mSize, align 8
  ret i32 %0
}

; Function Attrs: mustprogress uwtable
define linkonce_odr noundef zeroext i1 @_ZNK7openvdb5v11_06points11GroupHandle9isUniformEv(ptr noundef nonnull align 8 dereferenceable(9) %this) #4 comdat align 2 {
entry:
  %this.addr = alloca ptr, align 8
  store ptr %this, ptr %this.addr, align 8
  %this1 = load ptr, ptr %this.addr, align 8
  %mArray = getelementptr inbounds %"class.openvdb::v11_0::points::GroupHandle", ptr %this1, i32 0, i32 0
  %0 = load ptr, ptr %mArray, align 8
  %call = call noundef zeroext i1 @_ZNK7openvdb5v11_06points19TypedAttributeArrayIhNS1_10GroupCodecEE9isUniformEv(ptr noundef nonnull align 8 dereferenceable(40) %0)
  ret i1 %call
}

; Function Attrs: mustprogress uwtable
define noundef zeroext i1 @_ZN7openvdb5v11_06points16GroupWriteHandle8collapseEb(ptr noundef nonnull align 8 dereferenceable(9) %this, i1 noundef zeroext %on) #4 align 2 {
entry:
  %retval = alloca i1, align 1
  %this.addr = alloca ptr, align 8
  %on.addr = alloca i8, align 1
  %array = alloca ptr, align 8
  %ref.tmp = alloca i8, align 1
  %ref.tmp7 = alloca i8, align 1
  %i = alloca i32, align 4
  %ref.tmp17 = alloca i8, align 1
  %ref.tmp25 = alloca i8, align 1
  store ptr %this, ptr %this.addr, align 8
  %frombool = zext i1 %on to i8
  store i8 %frombool, ptr %on.addr, align 1
  %this1 = load ptr, ptr %this.addr, align 8
  %mArray = getelementptr inbounds %"class.openvdb::v11_0::points::GroupHandle", ptr %this1, i32 0, i32 0
  %0 = load ptr, ptr %mArray, align 8
  store ptr %0, ptr %array, align 8
  %1 = load ptr, ptr %array, align 8
  %call = call noundef zeroext i1 @_ZN7openvdb5v11_06points19TypedAttributeArrayIhNS1_10GroupCodecEE7compactEv(ptr noundef nonnull align 8 dereferenceable(40) %1)
  %call2 = call noundef zeroext i1 @_ZNK7openvdb5v11_06points11GroupHandle9isUniformEv(ptr noundef nonnull align 8 dereferenceable(9) %this1)
  br i1 %call2, label %if.then, label %if.end13

if.then:                                          ; preds = %entry
  %2 = load i8, ptr %on.addr, align 1
  %tobool = trunc i8 %2 to i1
  br i1 %tobool, label %if.then3, label %if.else

if.then3:                                         ; preds = %if.then
  %3 = load ptr, ptr %array, align 8
  %4 = load ptr, ptr %array, align 8
  %call4 = call noundef zeroext i8 @_ZNK7openvdb5v11_06points19TypedAttributeArrayIhNS1_10GroupCodecEE3getEj(ptr noundef nonnull align 8 dereferenceable(40) %4, i32 noundef 0)
  %conv = zext i8 %call4 to i32
  %mBitMask = getelementptr inbounds %"class.openvdb::v11_0::points::GroupHandle", ptr %this1, i32 0, i32 1
  %5 = load i8, ptr %mBitMask, align 8
  %conv5 = zext i8 %5 to i32
  %or = or i32 %conv, %conv5
  %conv6 = trunc i32 %or to i8
  store i8 %conv6, ptr %ref.tmp, align 1
  call void @_ZN7openvdb5v11_06points19TypedAttributeArrayIhNS1_10GroupCodecEE8collapseERKh(ptr noundef nonnull align 8 dereferenceable(40) %3, ptr noundef nonnull align 1 dereferenceable(1) %ref.tmp)
  br label %if.end

if.else:                                          ; preds = %if.then
  %6 = load ptr, ptr %array, align 8
  %7 = load ptr, ptr %array, align 8
  %call8 = call noundef zeroext i8 @_ZNK7openvdb5v11_06points19TypedAttributeArrayIhNS1_10GroupCodecEE3getEj(ptr noundef nonnull align 8 dereferenceable(40) %7, i32 noundef 0)
  %conv9 = zext i8 %call8 to i32
  %mBitMask10 = getelementptr inbounds %"class.openvdb::v11_0::points::GroupHandle", ptr %this1, i32 0, i32 1
  %8 = load i8, ptr %mBitMask10, align 8
  %conv11 = zext i8 %8 to i32
  %not = xor i32 %conv11, -1
  %and = and i32 %conv9, %not
  %conv12 = trunc i32 %and to i8
  store i8 %conv12, ptr %ref.tmp7, align 1
  call void @_ZN7openvdb5v11_06points19TypedAttributeArrayIhNS1_10GroupCodecEE8collapseERKh(ptr noundef nonnull align 8 dereferenceable(40) %6, ptr noundef nonnull align 1 dereferenceable(1) %ref.tmp7)
  br label %if.end

if.end:                                           ; preds = %if.else, %if.then3
  store i1 true, ptr %retval, align 1
  br label %return

if.end13:                                         ; preds = %entry
  store i32 0, ptr %i, align 4
  br label %for.cond

for.cond:                                         ; preds = %for.inc, %if.end13
  %9 = load i32, ptr %i, align 4
  %10 = load ptr, ptr %array, align 8
  %call14 = call noundef i32 @_ZNK7openvdb5v11_06points19TypedAttributeArrayIhNS1_10GroupCodecEE4sizeEv(ptr noundef nonnull align 8 dereferenceable(40) %10)
  %cmp = icmp ult i32 %9, %call14
  br i1 %cmp, label %for.body, label %for.end

for.body:                                         ; preds = %for.cond
  %11 = load i8, ptr %on.addr, align 1
  %tobool15 = trunc i8 %11 to i1
  br i1 %tobool15, label %if.then16, label %if.else24

if.then16:                                        ; preds = %for.body
  %12 = load ptr, ptr %array, align 8
  %13 = load i32, ptr %i, align 4
  %14 = load ptr, ptr %array, align 8
  %15 = load i32, ptr %i, align 4
  %call18 = call noundef zeroext i8 @_ZNK7openvdb5v11_06points19TypedAttributeArrayIhNS1_10GroupCodecEE3getEj(ptr noundef nonnull align 8 dereferenceable(40) %14, i32 noundef %15)
  %conv19 = zext i8 %call18 to i32
  %mBitMask20 = getelementptr inbounds %"class.openvdb::v11_0::points::GroupHandle", ptr %this1, i32 0, i32 1
  %16 = load i8, ptr %mBitMask20, align 8
  %conv21 = zext i8 %16 to i32
  %or22 = or i32 %conv19, %conv21
  %conv23 = trunc i32 %or22 to i8
  store i8 %conv23, ptr %ref.tmp17, align 1
  call void @_ZN7openvdb5v11_06points19TypedAttributeArrayIhNS1_10GroupCodecEE3setEjRKh(ptr noundef nonnull align 8 dereferenceable(40) %12, i32 noundef %13, ptr noundef nonnull align 1 dereferenceable(1) %ref.tmp17)
  br label %if.end33

if.else24:                                        ; preds = %for.body
  %17 = load ptr, ptr %array, align 8
  %18 = load i32, ptr %i, align 4
  %19 = load ptr, ptr %array, align 8
  %20 = load i32, ptr %i, align 4
  %call26 = call noundef zeroext i8 @_ZNK7openvdb5v11_06points19TypedAttributeArrayIhNS1_10GroupCodecEE3getEj(ptr noundef nonnull align 8 dereferenceable(40) %19, i32 noundef %20)
  %conv27 = zext i8 %call26 to i32
  %mBitMask28 = getelementptr inbounds %"class.openvdb::v11_0::points::GroupHandle", ptr %this1, i32 0, i32 1
  %21 = load i8, ptr %mBitMask28, align 8
  %conv29 = zext i8 %21 to i32
  %not30 = xor i32 %conv29, -1
  %and31 = and i32 %conv27, %not30
  %conv32 = trunc i32 %and31 to i8
  store i8 %conv32, ptr %ref.tmp25, align 1
  call void @_ZN7openvdb5v11_06points19TypedAttributeArrayIhNS1_10GroupCodecEE3setEjRKh(ptr noundef nonnull align 8 dereferenceable(40) %17, i32 noundef %18, ptr noundef nonnull align 1 dereferenceable(1) %ref.tmp25)
  br label %if.end33

if.end33:                                         ; preds = %if.else24, %if.then16
  br label %for.inc

for.inc:                                          ; preds = %if.end33
  %22 = load i32, ptr %i, align 4
  %inc = add i32 %22, 1
  store i32 %inc, ptr %i, align 4
  br label %for.cond, !llvm.loop !4

for.end:                                          ; preds = %for.cond
  store i1 false, ptr %retval, align 1
  br label %return

return:                                           ; preds = %for.end, %if.end
  %23 = load i1, ptr %retval, align 1
  ret i1 %23
}