; Function Attrs: mustprogress uwtable
define noundef zeroext i1 @_ZN7openvdb5v11_06points16GroupWriteHandle8collapseEb(ptr nocapture noundef nonnull readonly align 8 dereferenceable(9) %this, i1 noundef zeroext %on) local_unnamed_addr #3 align 2 {
entry:
  %ref.tmp = alloca i8, align 1
  %ref.tmp7 = alloca i8, align 1
  %ref.tmp17 = alloca i8, align 1
  %ref.tmp25 = alloca i8, align 1
  %0 = load ptr, ptr %this, align 8
  %call = tail call noundef zeroext i1 @_ZN7openvdb5v11_06points19TypedAttributeArrayIhNS1_10GroupCodecEE7compactEv(ptr noundef nonnull align 8 dereferenceable(40) %0)
  %1 = load ptr, ptr %this, align 8
  %mIsUniform.i.i = getelementptr inbounds i8, ptr %1, i64 8
  %2 = load i8, ptr %mIsUniform.i.i, align 8
  %3 = and i8 %2, 1
  %tobool.i.i = icmp ne i8 %3, 0
  br i1 %tobool.i.i, label %if.then, label %for.cond.preheader

for.cond.preheader:                               ; preds = %entry
  %mSize.i = getelementptr inbounds i8, ptr %0, i64 32
  %4 = load i32, ptr %mSize.i, align 8
  %cmp18.not = icmp eq i32 %4, 0
  br i1 %cmp18.not, label %return, label %for.body.lr.ph

for.body.lr.ph:                                   ; preds = %for.cond.preheader
  %mBitMask28 = getelementptr inbounds i8, ptr %this, i64 8
  br i1 %on, label %for.body.us, label %for.body

for.body.us:                                      ; preds = %for.body.lr.ph, %for.body.us
  %i.019.us = phi i32 [ %inc.us, %for.body.us ], [ 0, %for.body.lr.ph ]
  %call18.us = call noundef zeroext i8 @_ZNK7openvdb5v11_06points19TypedAttributeArrayIhNS1_10GroupCodecEE3getEj(ptr noundef nonnull align 8 dereferenceable(40) %0, i32 noundef %i.019.us)
  %5 = load i8, ptr %mBitMask28, align 8
  %or2216.us = or i8 %5, %call18.us
  store i8 %or2216.us, ptr %ref.tmp17, align 1
  call void @_ZN7openvdb5v11_06points19TypedAttributeArrayIhNS1_10GroupCodecEE3setEjRKh(ptr noundef nonnull align 8 dereferenceable(40) %0, i32 noundef %i.019.us, ptr noundef nonnull align 1 dereferenceable(1) %ref.tmp17)
  %inc.us = add nuw i32 %i.019.us, 1
  %6 = load i32, ptr %mSize.i, align 8
  %cmp.us = icmp ult i32 %inc.us, %6
  br i1 %cmp.us, label %for.body.us, label %return, !llvm.loop !7

if.then:                                          ; preds = %entry
  %call4 = tail call noundef zeroext i8 @_ZNK7openvdb5v11_06points19TypedAttributeArrayIhNS1_10GroupCodecEE3getEj(ptr noundef nonnull align 8 dereferenceable(40) %0, i32 noundef 0)
  %mBitMask = getelementptr inbounds i8, ptr %this, i64 8
  %7 = load i8, ptr %mBitMask, align 8
  br i1 %on, label %if.then3, label %if.else

if.then3:                                         ; preds = %if.then
  %or17 = or i8 %7, %call4
  store i8 %or17, ptr %ref.tmp, align 1
  br label %return.sink.split

if.else:                                          ; preds = %if.then
  %not = xor i8 %7, -1
  %and = and i8 %call4, %not
  store i8 %and, ptr %ref.tmp7, align 1
  br label %return.sink.split

for.body:                                         ; preds = %for.body.lr.ph, %for.body
  %i.019 = phi i32 [ %inc, %for.body ], [ 0, %for.body.lr.ph ]
  %call26 = call noundef zeroext i8 @_ZNK7openvdb5v11_06points19TypedAttributeArrayIhNS1_10GroupCodecEE3getEj(ptr noundef nonnull align 8 dereferenceable(40) %0, i32 noundef %i.019)
  %8 = load i8, ptr %mBitMask28, align 8
  %not30 = xor i8 %8, -1
  %and31 = and i8 %call26, %not30
  store i8 %and31, ptr %ref.tmp25, align 1
  call void @_ZN7openvdb5v11_06points19TypedAttributeArrayIhNS1_10GroupCodecEE3setEjRKh(ptr noundef nonnull align 8 dereferenceable(40) %0, i32 noundef %i.019, ptr noundef nonnull align 1 dereferenceable(1) %ref.tmp25)
  %inc = add nuw i32 %i.019, 1
  %9 = load i32, ptr %mSize.i, align 8
  %cmp = icmp ult i32 %inc, %9
  br i1 %cmp, label %for.body, label %return, !llvm.loop !7

return.sink.split:                                ; preds = %if.else, %if.then3
  %ref.tmp.sink = phi ptr [ %ref.tmp, %if.then3 ], [ %ref.tmp7, %if.else ]
  call void @_ZN7openvdb5v11_06points19TypedAttributeArrayIhNS1_10GroupCodecEE8collapseERKh(ptr noundef nonnull align 8 dereferenceable(40) %0, ptr noundef nonnull align 1 dereferenceable(1) %ref.tmp.sink)
  br label %return

return:                                           ; preds = %for.body, %for.body.us, %return.sink.split, %for.cond.preheader
  ret i1 %tobool.i.i
}